; Function Attrs: mustprogress uwtable
define noundef ptr @_Z29openssl_digest_from_algorithmPKc(ptr noundef %0) local_unnamed_addr #6 personality ptr @__gxx_personality_v0 {
  %2 = alloca ptr, align 8
  %3 = alloca %"class.absl::lts_20240722::log_internal::LogMessage", align 8
  store ptr %0, ptr %2, align 8, !tbaa !38
  %4 = tail call i32 @strcmp(ptr noundef nonnull dereferenceable(1) %0, ptr noundef nonnull dereferenceable(6) @.str.14) #29
  %5 = icmp eq i32 %4, 0
  br i1 %5, label %6, label %8

6:                                                ; preds = %1
  %7 = tail call ptr @EVP_sha256()
  br label %13

8:                                                ; preds = %1
  call void @llvm.lifetime.start.p0(i64 16, ptr nonnull %3) #30
  call void @_ZN4absl12lts_2024072212log_internal10LogMessageC1EPKciNS2_8ErrorTagE(ptr noundef nonnull align 8 dereferenceable(16) %3, ptr noundef nonnull @.str.1, i32 noundef 236) #32
  invoke void @_ZN4absl12lts_2024072212log_internal10LogMessage19CopyToEncodedBufferILNS2_10StringTypeE0EEEvSt17basic_string_viewIcSt11char_traitsIcEE(ptr noundef nonnull align 8 dereferenceable(16) %3, i64 18, ptr nonnull @.str.15)
          to label %_ZN4absl12lts_2024072212log_internal10LogMessagelsILi19EEERS2_RAT__Kc.exit unwind label %11

_ZN4absl12lts_2024072212log_internal10LogMessagelsILi19EEERS2_RAT__Kc.exit: ; preds = %8
  %9 = invoke noundef nonnull align 8 dereferenceable(16) ptr @_ZN4absl12lts_2024072212log_internal10LogMessagelsIPKcTnNSt9enable_ifIXntsr4absl16HasAbslStringifyIT_EE5valueEiE4typeELi0EEERS2_RKS7_(ptr noundef nonnull align 8 dereferenceable(16) %3, ptr noundef nonnull align 8 dereferenceable(8) %2)
          to label %10 unwind label %11

10:                                               ; preds = %_ZN4absl12lts_2024072212log_internal10LogMessagelsILi19EEERS2_RAT__Kc.exit
  call void @_ZN4absl12lts_2024072212log_internal10LogMessageD1Ev(ptr noundef nonnull align 8 dereferenceable(16) %3) #33
  call void @llvm.lifetime.end.p0(i64 16, ptr nonnull %3) #30
  br label %13

11:                                               ; preds = %8, %_ZN4absl12lts_2024072212log_internal10LogMessagelsILi19EEERS2_RAT__Kc.exit
  %12 = landingpad { ptr, i32 }
          cleanup
  call void @_ZN4absl12lts_2024072212log_internal10LogMessageD1Ev(ptr noundef nonnull align 8 dereferenceable(16) %3) #33
  call void @llvm.lifetime.end.p0(i64 16, ptr nonnull %3) #30
  resume { ptr, i32 } %12

13:                                               ; preds = %10, %6
  %.0 = phi ptr [ %7, %6 ], [ null, %10 ]
  ret ptr %.0
}